target datalayout = "e-m:e-p270:32:32-p271:32:32-p272:64:64-i64:64-i128:128-f80:128-n8:16:32:64-S128"
target triple = "x86_64-pc-linux-gnu"

%struct.timespec = type { i64, i64 }
%struct.QEMUIOVector = type { ptr, i32, %union.anon }
%union.anon = type { %struct.anon }
%struct.anon = type { i32, %struct.iovec }
%struct.iovec = type { ptr, i64 }
%struct.anon.0 = type { [12 x i8], i64 }
%struct.aio_ctx = type { ptr, %struct.QEMUIOVector, i64, ptr, i8, i8, i8, i8, i8, %struct.BlockAcctCookie, i32, i32, %struct.timespec }
%struct.BlockAcctCookie = type { i64, i64, i32 }

@qemuio_misalign = dso_local global i8 0, align 1
@.str.77 = private unnamed_addr constant [6 x i8] c"wrote\00", align 1
@.str.98 = private unnamed_addr constant [22 x i8] c"aio_write failed: %s\0A\00", align 1

; Function Attrs: nounwind sspstrong uwtable
define internal void @qemu_io_free(ptr noundef %0, ptr noundef %1, i64 noundef %2, i1 noundef zeroext %3) #0 {
  %5 = alloca ptr, align 8
  %6 = alloca ptr, align 8
  %7 = alloca i64, align 8
  %8 = alloca i8, align 1
  store ptr %0, ptr %5, align 8
  store ptr %1, ptr %6, align 8
  store i64 %2, ptr %7, align 8
  %9 = zext i1 %3 to i8
  store i8 %9, ptr %8, align 1
  %10 = load i8, ptr @qemuio_misalign, align 1, !range !11, !noundef !12
  %11 = trunc i8 %10 to i1
  br i1 %11, label %12, label %17

12:                                               ; preds = %4
  %13 = load ptr, ptr %6, align 8
  %14 = getelementptr inbounds i8, ptr %13, i64 -16
  store ptr %14, ptr %6, align 8
  %15 = load i64, ptr %7, align 8
  %16 = add i64 %15, 16
  store i64 %16, ptr %7, align 8
  br label %17

17:                                               ; preds = %12, %4
  %18 = load i8, ptr %8, align 1, !range !11, !noundef !12
  %19 = trunc i8 %18 to i1
  br i1 %19, label %20, label %24

20:                                               ; preds = %17
  %21 = load ptr, ptr %5, align 8
  %22 = load ptr, ptr %6, align 8
  %23 = load i64, ptr %7, align 8
  call void @blk_unregister_buf(ptr noundef %21, ptr noundef %22, i64 noundef %23)
  br label %24

24:                                               ; preds = %20, %17
  %25 = load ptr, ptr %6, align 8
  call void @qemu_vfree(ptr noundef %25)
  ret void
}

; Function Attrs: nounwind sspstrong uwtable
define internal { i64, i64 } @tsub(i64 %0, i64 %1, i64 %2, i64 %3) #0 {
  %5 = alloca %struct.timespec, align 8
  %6 = alloca %struct.timespec, align 8
  %7 = alloca %struct.timespec, align 8
  %8 = getelementptr inbounds nuw { i64, i64 }, ptr %6, i32 0, i32 0
  store i64 %0, ptr %8, align 8
  %9 = getelementptr inbounds nuw { i64, i64 }, ptr %6, i32 0, i32 1
  store i64 %1, ptr %9, align 8
  %10 = getelementptr inbounds nuw { i64, i64 }, ptr %7, i32 0, i32 0
  store i64 %2, ptr %10, align 8
  %11 = getelementptr inbounds nuw { i64, i64 }, ptr %7, i32 0, i32 1
  store i64 %3, ptr %11, align 8
  %12 = getelementptr inbounds nuw %struct.timespec, ptr %7, i32 0, i32 1
  %13 = load i64, ptr %12, align 8
  %14 = getelementptr inbounds nuw %struct.timespec, ptr %6, i32 0, i32 1
  %15 = load i64, ptr %14, align 8
  %16 = sub i64 %15, %13
  store i64 %16, ptr %14, align 8
  %17 = getelementptr inbounds nuw %struct.timespec, ptr %6, i32 0, i32 1
  %18 = load i64, ptr %17, align 8
  %19 = icmp slt i64 %18, 0
  br i1 %19, label %20, label %27

20:                                               ; preds = %4
  %21 = getelementptr inbounds nuw %struct.timespec, ptr %6, i32 0, i32 1
  %22 = load i64, ptr %21, align 8
  %23 = add i64 %22, 1000000000
  store i64 %23, ptr %21, align 8
  %24 = getelementptr inbounds nuw %struct.timespec, ptr %6, i32 0, i32 0
  %25 = load i64, ptr %24, align 8
  %26 = add i64 %25, -1
  store i64 %26, ptr %24, align 8
  br label %27

27:                                               ; preds = %20, %4
  %28 = getelementptr inbounds nuw %struct.timespec, ptr %7, i32 0, i32 0
  %29 = load i64, ptr %28, align 8
  %30 = getelementptr inbounds nuw %struct.timespec, ptr %6, i32 0, i32 0
  %31 = load i64, ptr %30, align 8
  %32 = sub i64 %31, %29
  store i64 %32, ptr %30, align 8
  call void @llvm.memcpy.p0.p0.i64(ptr align 8 %5, ptr align 8 %6, i64 16, i1 false)
  %33 = load { i64, i64 }, ptr %5, align 8
  ret { i64, i64 } %33
}

; Function Attrs: nounwind sspstrong uwtable
define internal void @aio_write_done(ptr noundef %0, i32 noundef %1) #0 {
  %3 = alloca ptr, align 8
  %4 = alloca i32, align 4
  %5 = alloca ptr, align 8
  %6 = alloca %struct.timespec, align 8
  %7 = alloca %struct.timespec, align 8
  store ptr %0, ptr %3, align 8
  store i32 %1, ptr %4, align 4
  call void @llvm.lifetime.start.p0(i64 8, ptr %5) #18
  %8 = load ptr, ptr %3, align 8
  store ptr %8, ptr %5, align 8
  call void @llvm.lifetime.start.p0(i64 16, ptr %6) #18
  call void @llvm.memset.p0.i64(ptr align 8 %6, i8 0, i64 16, i1 false), !annotation !4
  %9 = call i32 @clock_gettime(i32 noundef 1, ptr noundef %6) #18
  %10 = load i32, ptr %4, align 4
  %11 = icmp slt i32 %10, 0
  br i1 %11, label %12, label %23

12:                                               ; preds = %2
  %13 = load i32, ptr %4, align 4
  %14 = sub i32 0, %13
  %15 = call ptr @strerror(i32 noundef %14) #18
  %16 = call i32 (i32, ptr, ...) @__printf_chk(i32 noundef 1, ptr noundef @.str.98, ptr noundef %15)
  %17 = load ptr, ptr %5, align 8
  %18 = getelementptr inbounds nuw %struct.aio_ctx, ptr %17, i32 0, i32 0
  %19 = load ptr, ptr %18, align 8
  %20 = call ptr @blk_get_stats(ptr noundef %19)
  %21 = load ptr, ptr %5, align 8
  %22 = getelementptr inbounds nuw %struct.aio_ctx, ptr %21, i32 0, i32 9
  call void @block_acct_failed(ptr noundef %20, ptr noundef %22)
  br label %68

23:                                               ; preds = %2
  %24 = load ptr, ptr %5, align 8
  %25 = getelementptr inbounds nuw %struct.aio_ctx, ptr %24, i32 0, i32 0
  %26 = load ptr, ptr %25, align 8
  %27 = call ptr @blk_get_stats(ptr noundef %26)
  %28 = load ptr, ptr %5, align 8
  %29 = getelementptr inbounds nuw %struct.aio_ctx, ptr %28, i32 0, i32 9
  call void @block_acct_done(ptr noundef %27, ptr noundef %29)
  %30 = load ptr, ptr %5, align 8
  %31 = getelementptr inbounds nuw %struct.aio_ctx, ptr %30, i32 0, i32 4
  %32 = load i8, ptr %31, align 8, !range !11, !noundef !12
  %33 = trunc i8 %32 to i1
  br i1 %33, label %34, label %35

34:                                               ; preds = %23
  br label %68

35:                                               ; preds = %23
  call void @llvm.lifetime.start.p0(i64 16, ptr %7) #18
  %36 = load ptr, ptr %5, align 8
  %37 = getelementptr inbounds nuw %struct.aio_ctx, ptr %36, i32 0, i32 12
  %38 = getelementptr inbounds nuw { i64, i64 }, ptr %6, i32 0, i32 0
  %39 = load i64, ptr %38, align 8
  %40 = getelementptr inbounds nuw { i64, i64 }, ptr %6, i32 0, i32 1
  %41 = load i64, ptr %40, align 8
  %42 = getelementptr inbounds nuw { i64, i64 }, ptr %37, i32 0, i32 0
  %43 = load i64, ptr %42, align 8
  %44 = getelementptr inbounds nuw { i64, i64 }, ptr %37, i32 0, i32 1
  %45 = load i64, ptr %44, align 8
  %46 = call { i64, i64 } @tsub(i64 %39, i64 %41, i64 %43, i64 %45)
  %47 = getelementptr inbounds nuw { i64, i64 }, ptr %7, i32 0, i32 0
  %48 = extractvalue { i64, i64 } %46, 0
  store i64 %48, ptr %47, align 8
  %49 = getelementptr inbounds nuw { i64, i64 }, ptr %7, i32 0, i32 1
  %50 = extractvalue { i64, i64 } %46, 1
  store i64 %50, ptr %49, align 8
  call void @llvm.memcpy.p0.p0.i64(ptr align 8 %6, ptr align 8 %7, i64 16, i1 false)
  call void @llvm.lifetime.end.p0(i64 16, ptr %7) #18
  %51 = load ptr, ptr %5, align 8
  %52 = getelementptr inbounds nuw %struct.aio_ctx, ptr %51, i32 0, i32 2
  %53 = load i64, ptr %52, align 8
  %54 = load ptr, ptr %5, align 8
  %55 = getelementptr inbounds nuw %struct.aio_ctx, ptr %54, i32 0, i32 1
  %56 = getelementptr inbounds nuw %struct.QEMUIOVector, ptr %55, i32 0, i32 2
  %57 = getelementptr inbounds nuw %struct.anon.0, ptr %56, i32 0, i32 1
  %58 = load i64, ptr %57, align 8
  %59 = load ptr, ptr %5, align 8
  %60 = getelementptr inbounds nuw %struct.aio_ctx, ptr %59, i32 0, i32 1
  %61 = getelementptr inbounds nuw %struct.QEMUIOVector, ptr %60, i32 0, i32 2
  %62 = getelementptr inbounds nuw %struct.anon.0, ptr %61, i32 0, i32 1
  %63 = load i64, ptr %62, align 8
  %64 = load ptr, ptr %5, align 8
  %65 = getelementptr inbounds nuw %struct.aio_ctx, ptr %64, i32 0, i32 6
  %66 = load i8, ptr %65, align 2, !range !11, !noundef !12
  %67 = trunc i8 %66 to i1
  call void @print_report(ptr noundef @.str.77, ptr noundef %6, i64 noundef %53, i64 noundef %58, i64 noundef %63, i32 noundef 1, i1 noundef zeroext %67)
  br label %68

68:                                               ; preds = %35, %34, %12
  %69 = load ptr, ptr %5, align 8
  %70 = getelementptr inbounds nuw %struct.aio_ctx, ptr %69, i32 0, i32 8
  %71 = load i8, ptr %70, align 4, !range !11, !noundef !12
  %72 = trunc i8 %71 to i1
  br i1 %72, label %92, label %73

73:                                               ; preds = %68
  %74 = load ptr, ptr %5, align 8
  %75 = getelementptr inbounds nuw %struct.aio_ctx, ptr %74, i32 0, i32 0
  %76 = load ptr, ptr %75, align 8
  %77 = load ptr, ptr %5, align 8
  %78 = getelementptr inbounds nuw %struct.aio_ctx, ptr %77, i32 0, i32 3
  %79 = load ptr, ptr %78, align 8
  %80 = load ptr, ptr %5, align 8
  %81 = getelementptr inbounds nuw %struct.aio_ctx, ptr %80, i32 0, i32 1
  %82 = getelementptr inbounds nuw %struct.QEMUIOVector, ptr %81, i32 0, i32 2
  %83 = getelementptr inbounds nuw %struct.anon.0, ptr %82, i32 0, i32 1
  %84 = load i64, ptr %83, align 8
  %85 = load ptr, ptr %5, align 8
  %86 = getelementptr inbounds nuw %struct.aio_ctx, ptr %85, i32 0, i32 11
  %87 = load i32, ptr %86, align 4
  %88 = and i32 %87, 8
  %89 = icmp ne i32 %88, 0
  call void @qemu_io_free(ptr noundef %76, ptr noundef %79, i64 noundef %84, i1 noundef zeroext %89)
  %90 = load ptr, ptr %5, align 8
  %91 = getelementptr inbounds nuw %struct.aio_ctx, ptr %90, i32 0, i32 1
  call void @qemu_iovec_destroy(ptr noundef %91)
  br label %92

92:                                               ; preds = %73, %68
  %93 = load ptr, ptr %5, align 8
  call void @g_free(ptr noundef %93)
  call void @llvm.lifetime.end.p0(i64 16, ptr %6) #18
  call void @llvm.lifetime.end.p0(i64 8, ptr %5) #18
  ret void
}