; Function Attrs: nounwind sspstrong uwtable
define internal void @aio_write_done(ptr noundef %0, i32 noundef %1) #0 {
  %3 = alloca %struct.timespec, align 8
  call void @llvm.lifetime.start.p0(i64 16, ptr nonnull %3) #26
  call void @llvm.memset.p0.i64(ptr noundef nonnull align 8 dereferenceable(16) %3, i8 0, i64 16, i1 false), !annotation !8
  %4 = call i32 @clock_gettime(i32 noundef 1, ptr noundef nonnull %3) #26
  %5 = icmp slt i32 %1, 0
  br i1 %5, label %6, label %13

6:                                                ; preds = %2
  %7 = sub i32 0, %1
  %8 = call ptr @strerror(i32 noundef %7) #26
  %9 = call i32 (i32, ptr, ...) @__printf_chk(i32 noundef 1, ptr noundef nonnull @.str.98, ptr noundef %8) #26
  %10 = load ptr, ptr %0, align 8
  %11 = call ptr @blk_get_stats(ptr noundef %10) #26
  %12 = getelementptr inbounds nuw i8, ptr %0, i64 72
  call void @block_acct_failed(ptr noundef %11, ptr noundef nonnull %12) #26
  br label %39

13:                                               ; preds = %2
  %14 = load ptr, ptr %0, align 8
  %15 = call ptr @blk_get_stats(ptr noundef %14) #26
  %16 = getelementptr inbounds nuw i8, ptr %0, i64 72
  call void @block_acct_done(ptr noundef %15, ptr noundef nonnull %16) #26
  %17 = getelementptr inbounds nuw i8, ptr %0, i64 64
  %18 = load i8, ptr %17, align 8, !range !11, !noundef !12
  %19 = trunc nuw i8 %18 to i1
  br i1 %19, label %39, label %20

20:                                               ; preds = %13
  %21 = getelementptr inbounds nuw i8, ptr %0, i64 104
  %22 = load i64, ptr %3, align 8
  %23 = getelementptr inbounds nuw i8, ptr %3, i64 8
  %24 = load i64, ptr %23, align 8
  %25 = load i64, ptr %21, align 8
  %26 = getelementptr inbounds nuw i8, ptr %0, i64 112
  %27 = load i64, ptr %26, align 8
  %28 = sub i64 %24, %27
  %29 = icmp slt i64 %28, 0
  %30 = add nsw i64 %28, 1000000000
  %.lobit.i = ashr i64 %28, 63
  %.sroa.6.0.i = select i1 %29, i64 %30, i64 %28
  %.sroa.01.0.i = sub i64 %22, %25
  %31 = add i64 %.sroa.01.0.i, %.lobit.i
  store i64 %31, ptr %3, align 8
  store i64 %.sroa.6.0.i, ptr %23, align 8
  %32 = getelementptr inbounds nuw i8, ptr %0, i64 48
  %33 = load i64, ptr %32, align 8
  %34 = getelementptr inbounds nuw i8, ptr %0, i64 40
  %35 = load i64, ptr %34, align 8
  %36 = getelementptr inbounds nuw i8, ptr %0, i64 66
  %37 = load i8, ptr %36, align 2, !range !11, !noundef !12
  %38 = trunc nuw i8 %37 to i1
  call fastcc void @print_report(ptr noundef nonnull @.str.77, ptr noundef %3, i64 noundef %33, i64 noundef %35, i64 noundef %35, i32 noundef 1, i1 noundef zeroext %38)
  br label %39

39:                                               ; preds = %13, %20, %6
  %40 = getelementptr inbounds nuw i8, ptr %0, i64 68
  %41 = load i8, ptr %40, align 4, !range !11, !noundef !12
  %42 = trunc nuw i8 %41 to i1
  br i1 %42, label %57, label %43

43:                                               ; preds = %39
  %44 = getelementptr inbounds nuw i8, ptr %0, i64 56
  %45 = load ptr, ptr %44, align 8
  %46 = getelementptr inbounds nuw i8, ptr %0, i64 8
  %47 = getelementptr inbounds nuw i8, ptr %0, i64 100
  %48 = load i32, ptr %47, align 4
  %49 = and i32 %48, 8
  %.not = icmp eq i32 %49, 0
  %50 = load i8, ptr @qemuio_misalign, align 1, !range !11, !noundef !12
  %51 = trunc nuw i8 %50 to i1
  %.0.idx.i = select i1 %51, i64 -16, i64 0
  %.0.i = getelementptr inbounds i8, ptr %45, i64 %.0.idx.i
  br i1 %.not, label %qemu_io_free.exit, label %52

52:                                               ; preds = %43
  %53 = getelementptr inbounds nuw i8, ptr %0, i64 40
  %54 = load i64, ptr %53, align 8
  %55 = load ptr, ptr %0, align 8
  %56 = add i64 %54, 16
  %.06.i = select i1 %51, i64 %56, i64 %54
  call void @blk_unregister_buf(ptr noundef %55, ptr noundef %.0.i, i64 noundef %.06.i) #26
  br label %qemu_io_free.exit

qemu_io_free.exit:                                ; preds = %43, %52
  call void @qemu_vfree(ptr noundef %.0.i) #26
  call void @qemu_iovec_destroy(ptr noundef nonnull %46) #26
  br label %57

57:                                               ; preds = %qemu_io_free.exit, %39
  call void @g_free(ptr noundef nonnull %0) #26
  call void @llvm.lifetime.end.p0(i64 16, ptr nonnull %3) #26
  ret void
}